; Function Attrs: inlinehint nounwind uwtable
define internal fastcc noalias nonnull ptr @lean_alloc_closure(ptr noundef %0, i32 noundef range(i32 1, 16) %1, i32 noundef range(i32 0, 10) %2) unnamed_addr #0 {
  %4 = shl nuw nsw i32 %2, 3
  %narrow = add nuw nsw i32 %4, 24
  tail call void @lean_inc_heartbeat() #7
  %5 = and i32 %narrow, 120
  %6 = zext nneg i32 %5 to i64
  %7 = tail call noalias ptr @mi_malloc_small(i64 noundef %6) #7
  %8 = icmp eq ptr %7, null
  br i1 %8, label %9, label %lean_alloc_small_object.exit

9:                                                ; preds = %3
  tail call void @lean_internal_panic_out_of_memory() #6
  unreachable

lean_alloc_small_object.exit:                     ; preds = %3
  %10 = getelementptr inbounds nuw i8, ptr %7, i64 4
  store i32 1, ptr %7, align 4, !tbaa !4
  %11 = or disjoint i32 %5, -184549376
  store i32 %11, ptr %10, align 4
  %12 = getelementptr inbounds nuw i8, ptr %7, i64 8
  store ptr %0, ptr %12, align 8, !tbaa !11
  %13 = trunc nuw nsw i32 %1 to i16
  %14 = getelementptr inbounds nuw i8, ptr %7, i64 16
  store i16 %13, ptr %14, align 8, !tbaa !15
  %15 = trunc nuw nsw i32 %2 to i16
  %16 = getelementptr inbounds nuw i8, ptr %7, i64 18
  store i16 %15, ptr %16, align 2, !tbaa !15
  ret ptr %7
}